target datalayout = "e-m:e-p270:32:32-p271:32:32-p272:64:64-i64:64-i128:128-f80:128-n8:16:32:64-S128"
target triple = "x86_64-pc-linux-gnu"

%struct.GlobalProperty = type { ptr, ptr, ptr, i8, i8 }

@.str = private unnamed_addr constant [29 x i8] c"../qemu/hw/core/cpu-common.c\00", align 1
@cpu_common_parse_features.cpu_globals_initialized = internal global i8 0, align 1
@.str.12 = private unnamed_addr constant [2 x i8] c",\00", align 1
@.str.13 = private unnamed_addr constant [25 x i8] c"!cpu_globals_initialized\00", align 1
@__PRETTY_FUNCTION__.cpu_common_parse_features = private unnamed_addr constant [63 x i8] c"void cpu_common_parse_features(const char *, char *, Error **)\00", align 1
@__func__.cpu_common_parse_features = private unnamed_addr constant [26 x i8] c"cpu_common_parse_features\00", align 1
@.str.14 = private unnamed_addr constant [37 x i8] c"Expected key=value format, found %s.\00", align 1

; Function Attrs: nounwind sspstrong uwtable
define internal void @cpu_common_parse_features(ptr noundef %0, ptr noundef %1, ptr noundef %2) #0 {
  %4 = alloca ptr, align 8
  %5 = alloca ptr, align 8
  %6 = alloca ptr, align 8
  %7 = alloca ptr, align 8
  %8 = alloca ptr, align 8
  %9 = alloca ptr, align 8
  %10 = alloca i64, align 8
  %11 = alloca i64, align 8
  %12 = alloca ptr, align 8
  %13 = alloca ptr, align 8
  %14 = alloca i32, align 4
  store ptr %0, ptr %4, align 8
  store ptr %1, ptr %5, align 8
  store ptr %2, ptr %6, align 8
  call void @llvm.lifetime.start.p0(i64 8, ptr %7) #13
  store ptr null, ptr %7, align 8, !annotation !4
  call void @llvm.lifetime.start.p0(i64 8, ptr %8) #13
  %15 = load ptr, ptr %5, align 8
  %16 = icmp ne ptr %15, null
  br i1 %16, label %17, label %20

17:                                               ; preds = %3
  %18 = load ptr, ptr %5, align 8
  %19 = call ptr @strtok(ptr noundef %18, ptr noundef @.str.12) #13
  br label %21

20:                                               ; preds = %3
  br label %21

21:                                               ; preds = %20, %17
  %22 = phi ptr [ %19, %17 ], [ null, %20 ]
  store ptr %22, ptr %8, align 8
  %23 = load i8, ptr @cpu_common_parse_features.cpu_globals_initialized, align 1, !range !11, !noundef !12
  %24 = trunc i8 %23 to i1
  br i1 %24, label %26, label %25

25:                                               ; preds = %21
  br label %27

26:                                               ; preds = %21
  call void @__assert_fail(ptr noundef @.str.13, ptr noundef @.str, i32 noundef 174, ptr noundef @__PRETTY_FUNCTION__.cpu_common_parse_features) #15
  unreachable

27:                                               ; preds = %25
  store i8 1, ptr @cpu_common_parse_features.cpu_globals_initialized, align 1
  br label %28

28:                                               ; preds = %84, %27
  %29 = load ptr, ptr %8, align 8
  %30 = icmp ne ptr %29, null
  br i1 %30, label %31, label %86

31:                                               ; preds = %28
  %32 = load ptr, ptr %8, align 8
  %33 = call ptr @strchr(ptr noundef %32, i32 noundef 61) #18
  store ptr %33, ptr %7, align 8
  %34 = load ptr, ptr %7, align 8
  %35 = icmp ne ptr %34, null
  br i1 %35, label %36, label %81

36:                                               ; preds = %31
  call void @llvm.lifetime.start.p0(i64 8, ptr %9) #13
  call void @llvm.lifetime.start.p0(i64 8, ptr %10) #13
  store i64 1, ptr %10, align 8
  call void @llvm.lifetime.start.p0(i64 8, ptr %11) #13
  store i64 32, ptr %11, align 8
  call void @llvm.lifetime.start.p0(i64 8, ptr %12) #13
  store ptr null, ptr %12, align 8, !annotation !4
  %37 = load i64, ptr %11, align 8
  %38 = icmp eq i64 %37, 1
  br i1 %38, label %39, label %42

39:                                               ; preds = %36
  %40 = load i64, ptr %10, align 8
  %41 = call noalias ptr @g_malloc0(i64 noundef %40) #16
  store ptr %41, ptr %12, align 8
  br label %63

42:                                               ; preds = %36
  %43 = load i64, ptr %10, align 8
  %44 = call i1 @llvm.is.constant.i64(i64 %43)
  br i1 %44, label %45, label %58

45:                                               ; preds = %42
  %46 = load i64, ptr %11, align 8
  %47 = icmp eq i64 %46, 0
  br i1 %47, label %53, label %48

48:                                               ; preds = %45
  %49 = load i64, ptr %10, align 8
  %50 = load i64, ptr %11, align 8
  %51 = udiv i64 -1, %50
  %52 = icmp ule i64 %49, %51
  br i1 %52, label %53, label %58

53:                                               ; preds = %48, %45
  %54 = load i64, ptr %10, align 8
  %55 = load i64, ptr %11, align 8
  %56 = mul i64 %54, %55
  %57 = call noalias ptr @g_malloc0(i64 noundef %56) #16
  store ptr %57, ptr %12, align 8
  br label %62

58:                                               ; preds = %48, %42
  %59 = load i64, ptr %10, align 8
  %60 = load i64, ptr %11, align 8
  %61 = call noalias ptr @g_malloc0_n(i64 noundef %59, i64 noundef %60) #17
  store ptr %61, ptr %12, align 8
  br label %62

62:                                               ; preds = %58, %53
  br label %63

63:                                               ; preds = %62, %39
  %64 = load ptr, ptr %12, align 8
  store ptr %64, ptr %13, align 8
  call void @llvm.lifetime.end.p0(i64 8, ptr %12) #13
  call void @llvm.lifetime.end.p0(i64 8, ptr %11) #13
  call void @llvm.lifetime.end.p0(i64 8, ptr %10) #13
  %65 = load ptr, ptr %13, align 8
  store ptr %65, ptr %9, align 8
  %66 = load ptr, ptr %7, align 8
  store i8 0, ptr %66, align 1
  %67 = load ptr, ptr %7, align 8
  %68 = getelementptr inbounds nuw i8, ptr %67, i32 1
  store ptr %68, ptr %7, align 8
  %69 = load ptr, ptr %4, align 8
  %70 = load ptr, ptr %9, align 8
  %71 = getelementptr inbounds nuw %struct.GlobalProperty, ptr %70, i32 0, i32 0
  store ptr %69, ptr %71, align 8
  %72 = load ptr, ptr %8, align 8
  %73 = call noalias ptr @g_strdup(ptr noundef %72)
  %74 = load ptr, ptr %9, align 8
  %75 = getelementptr inbounds nuw %struct.GlobalProperty, ptr %74, i32 0, i32 1
  store ptr %73, ptr %75, align 8
  %76 = load ptr, ptr %7, align 8
  %77 = call noalias ptr @g_strdup(ptr noundef %76)
  %78 = load ptr, ptr %9, align 8
  %79 = getelementptr inbounds nuw %struct.GlobalProperty, ptr %78, i32 0, i32 2
  store ptr %77, ptr %79, align 8
  %80 = load ptr, ptr %9, align 8
  call void @qdev_prop_register_global(ptr noundef %80)
  call void @llvm.lifetime.end.p0(i64 8, ptr %9) #13
  br label %84

81:                                               ; preds = %31
  %82 = load ptr, ptr %6, align 8
  %83 = load ptr, ptr %8, align 8
  call void (ptr, ptr, i32, ptr, ptr, ...) @error_setg_internal(ptr noundef %82, ptr noundef @.str, i32 noundef 189, ptr noundef @__func__.cpu_common_parse_features, ptr noundef @.str.14, ptr noundef %83)
  store i32 1, ptr %14, align 4
  br label %87

84:                                               ; preds = %63
  %85 = call ptr @strtok(ptr noundef null, ptr noundef @.str.12) #13
  store ptr %85, ptr %8, align 8
  br label %28, !llvm.loop !16

86:                                               ; preds = %28
  store i32 0, ptr %14, align 4
  br label %87

87:                                               ; preds = %86, %81
  call void @llvm.lifetime.end.p0(i64 8, ptr %8) #13
  call void @llvm.lifetime.end.p0(i64 8, ptr %7) #13
  %88 = load i32, ptr %14, align 4
  switch i32 %88, label %90 [
    i32 0, label %89
    i32 1, label %89
  ]

89:                                               ; preds = %87, %87
  ret void

90:                                               ; preds = %87
  unreachable
}